; Function Attrs: mustprogress nounwind uwtable
define dso_local void @_ZN4llvm17PredicateExpander28expandCheckInvalidRegOperandERNS_11raw_ostreamEi(ptr nocapture noundef nonnull readonly align 8 dereferenceable(24) %0, ptr noundef nonnull align 8 dereferenceable(48) %1, i32 noundef %2) local_unnamed_addr #0 align 2 {
  %4 = getelementptr inbounds nuw i8, ptr %1, i64 24
  %5 = load ptr, ptr %4, align 8
  %6 = getelementptr inbounds nuw i8, ptr %1, i64 32
  %7 = load ptr, ptr %6, align 8
  %8 = ptrtoint ptr %5 to i64
  %9 = ptrtoint ptr %7 to i64
  %10 = sub i64 %8, %9
  %11 = icmp ult i64 %10, 2
  br i1 %11, label %12, label %14

12:                                               ; preds = %3
  %13 = tail call noundef nonnull align 8 dereferenceable(48) ptr @_ZN4llvm11raw_ostream5writeEPKcm(ptr noundef nonnull align 8 dereferenceable(48) %1, ptr noundef nonnull @.str.3, i64 noundef 2) #10
  %.phi.trans.insert = getelementptr inbounds nuw i8, ptr %13, i64 32
  %.pre = load ptr, ptr %.phi.trans.insert, align 8
  br label %_ZN4llvm11raw_ostreamlsEPKc.exit

14:                                               ; preds = %3
  store i16 18765, ptr %7, align 1
  %15 = load ptr, ptr %6, align 8
  %16 = getelementptr inbounds i8, ptr %15, i64 2
  store ptr %16, ptr %6, align 8
  br label %_ZN4llvm11raw_ostreamlsEPKc.exit

_ZN4llvm11raw_ostreamlsEPKc.exit:                 ; preds = %12, %14
  %17 = phi ptr [ %.pre, %12 ], [ %16, %14 ]
  %.0.i.i = phi ptr [ %13, %12 ], [ %1, %14 ]
  %18 = load i8, ptr %0, align 8
  %19 = trunc i8 %18 to i1
  %20 = select i1 %19, ptr @.str.4, ptr @.str.5
  %21 = select i1 %19, i64 1, i64 2
  %22 = getelementptr inbounds nuw i8, ptr %.0.i.i, i64 24
  %23 = load ptr, ptr %22, align 8
  %24 = ptrtoint ptr %23 to i64
  %25 = ptrtoint ptr %17 to i64
  %26 = sub i64 %24, %25
  %27 = icmp ugt i64 %21, %26
  br i1 %27, label %28, label %30

28:                                               ; preds = %_ZN4llvm11raw_ostreamlsEPKc.exit
  %29 = tail call noundef nonnull align 8 dereferenceable(48) ptr @_ZN4llvm11raw_ostream5writeEPKcm(ptr noundef nonnull align 8 dereferenceable(48) %.0.i.i, ptr noundef nonnull %20, i64 noundef %21) #10
  %.phi.trans.insert17 = getelementptr inbounds nuw i8, ptr %29, i64 32
  %.pre18 = load ptr, ptr %.phi.trans.insert17, align 8
  br label %_ZN4llvm11raw_ostreamlsEPKc.exit4

30:                                               ; preds = %_ZN4llvm11raw_ostreamlsEPKc.exit
  %31 = getelementptr inbounds nuw i8, ptr %.0.i.i, i64 32
  tail call void @llvm.memcpy.p0.p0.i64(ptr noundef nonnull align 1 dereferenceable(1) %17, ptr noundef nonnull align 1 dereferenceable(1) %20, i64 %21, i1 false)
  %32 = load ptr, ptr %31, align 8
  %33 = getelementptr inbounds i8, ptr %32, i64 %21
  store ptr %33, ptr %31, align 8
  br label %_ZN4llvm11raw_ostreamlsEPKc.exit4

_ZN4llvm11raw_ostreamlsEPKc.exit4:                ; preds = %28, %30
  %34 = phi ptr [ %.pre18, %28 ], [ %33, %30 ]
  %.0.i.i3 = phi ptr [ %29, %28 ], [ %.0.i.i, %30 ]
  %35 = getelementptr inbounds nuw i8, ptr %.0.i.i3, i64 24
  %36 = load ptr, ptr %35, align 8
  %37 = ptrtoint ptr %36 to i64
  %38 = ptrtoint ptr %34 to i64
  %39 = sub i64 %37, %38
  %40 = icmp ult i64 %39, 11
  br i1 %40, label %41, label %43

41:                                               ; preds = %_ZN4llvm11raw_ostreamlsEPKc.exit4
  %42 = tail call noundef nonnull align 8 dereferenceable(48) ptr @_ZN4llvm11raw_ostream5writeEPKcm(ptr noundef nonnull align 8 dereferenceable(48) %.0.i.i3, ptr noundef nonnull @.str.6, i64 noundef 11) #10
  br label %_ZN4llvm11raw_ostreamlsEPKc.exit7

43:                                               ; preds = %_ZN4llvm11raw_ostreamlsEPKc.exit4
  %44 = getelementptr inbounds nuw i8, ptr %.0.i.i3, i64 32
  tail call void @llvm.memcpy.p0.p0.i64(ptr noundef nonnull align 1 dereferenceable(11) %34, ptr noundef nonnull align 1 dereferenceable(11) @.str.6, i64 11, i1 false)
  %45 = load ptr, ptr %44, align 8
  %46 = getelementptr inbounds i8, ptr %45, i64 11
  store ptr %46, ptr %44, align 8
  br label %_ZN4llvm11raw_ostreamlsEPKc.exit7

_ZN4llvm11raw_ostreamlsEPKc.exit7:                ; preds = %41, %43
  %.0.i.i6 = phi ptr [ %42, %41 ], [ %.0.i.i3, %43 ]
  %47 = sext i32 %2 to i64
  %48 = tail call noundef nonnull align 8 dereferenceable(48) ptr @_ZN4llvm11raw_ostreamlsEl(ptr noundef nonnull align 8 dereferenceable(48) %.0.i.i6, i64 noundef %47) #10
  %49 = getelementptr inbounds nuw i8, ptr %48, i64 24
  %50 = load ptr, ptr %49, align 8
  %51 = getelementptr inbounds nuw i8, ptr %48, i64 32
  %52 = load ptr, ptr %51, align 8
  %53 = ptrtoint ptr %50 to i64
  %54 = ptrtoint ptr %52 to i64
  %55 = sub i64 %53, %54
  %56 = icmp ult i64 %55, 11
  br i1 %56, label %57, label %59

57:                                               ; preds = %_ZN4llvm11raw_ostreamlsEPKc.exit7
  %58 = tail call noundef nonnull align 8 dereferenceable(48) ptr @_ZN4llvm11raw_ostream5writeEPKcm(ptr noundef nonnull align 8 dereferenceable(48) %48, ptr noundef nonnull @.str.19, i64 noundef 11) #10
  %.phi.trans.insert19 = getelementptr inbounds nuw i8, ptr %58, i64 32
  %.pre20 = load ptr, ptr %.phi.trans.insert19, align 8
  br label %_ZN4llvm11raw_ostreamlsEPKc.exit10

59:                                               ; preds = %_ZN4llvm11raw_ostreamlsEPKc.exit7
  tail call void @llvm.memcpy.p0.p0.i64(ptr noundef nonnull align 1 dereferenceable(11) %52, ptr noundef nonnull align 1 dereferenceable(11) @.str.19, i64 11, i1 false)
  %60 = load ptr, ptr %51, align 8
  %61 = getelementptr inbounds i8, ptr %60, i64 11
  store ptr %61, ptr %51, align 8
  br label %_ZN4llvm11raw_ostreamlsEPKc.exit10

_ZN4llvm11raw_ostreamlsEPKc.exit10:               ; preds = %57, %59
  %62 = phi ptr [ %.pre20, %57 ], [ %61, %59 ]
  %.0.i.i9 = phi ptr [ %58, %57 ], [ %48, %59 ]
  %63 = getelementptr inbounds nuw i8, ptr %0, i64 1
  %64 = load i8, ptr %63, align 1
  %65 = trunc i8 %64 to i1
  %.str.20..str.21 = select i1 %65, ptr @.str.20, ptr @.str.21
  %66 = getelementptr inbounds nuw i8, ptr %.0.i.i9, i64 24
  %67 = load ptr, ptr %66, align 8
  %68 = ptrtoint ptr %67 to i64
  %69 = ptrtoint ptr %62 to i64
  %70 = sub i64 %68, %69
  %71 = icmp ult i64 %70, 3
  br i1 %71, label %72, label %74

72:                                               ; preds = %_ZN4llvm11raw_ostreamlsEPKc.exit10
  %73 = tail call noundef nonnull align 8 dereferenceable(48) ptr @_ZN4llvm11raw_ostream5writeEPKcm(ptr noundef nonnull align 8 dereferenceable(48) %.0.i.i9, ptr noundef nonnull %.str.20..str.21, i64 noundef 3) #10
  %.phi.trans.insert21 = getelementptr inbounds nuw i8, ptr %73, i64 32
  %.pre22 = load ptr, ptr %.phi.trans.insert21, align 8
  br label %_ZN4llvm11raw_ostreamlsEPKc.exit13

74:                                               ; preds = %_ZN4llvm11raw_ostreamlsEPKc.exit10
  %75 = getelementptr inbounds nuw i8, ptr %.0.i.i9, i64 32
  tail call void @llvm.memcpy.p0.p0.i64(ptr noundef nonnull align 1 dereferenceable(3) %62, ptr noundef nonnull align 1 dereferenceable(3) %.str.20..str.21, i64 3, i1 false)
  %76 = load ptr, ptr %75, align 8
  %77 = getelementptr inbounds i8, ptr %76, i64 3
  store ptr %77, ptr %75, align 8
  br label %_ZN4llvm11raw_ostreamlsEPKc.exit13

_ZN4llvm11raw_ostreamlsEPKc.exit13:               ; preds = %72, %74
  %78 = phi ptr [ %.pre22, %72 ], [ %77, %74 ]
  %.0.i.i12 = phi ptr [ %73, %72 ], [ %.0.i.i9, %74 ]
  %79 = getelementptr inbounds nuw i8, ptr %.0.i.i12, i64 24
  %80 = load ptr, ptr %79, align 8
  %81 = icmp eq ptr %80, %78
  br i1 %81, label %82, label %84

82:                                               ; preds = %_ZN4llvm11raw_ostreamlsEPKc.exit13
  %83 = tail call noundef nonnull align 8 dereferenceable(48) ptr @_ZN4llvm11raw_ostream5writeEPKcm(ptr noundef nonnull align 8 dereferenceable(48) %.0.i.i12, ptr noundef nonnull @.str.22, i64 noundef 1) #10
  br label %_ZN4llvm11raw_ostreamlsEPKc.exit16

84:                                               ; preds = %_ZN4llvm11raw_ostreamlsEPKc.exit13
  %85 = getelementptr inbounds nuw i8, ptr %.0.i.i12, i64 32
  store i8 48, ptr %78, align 1
  %86 = load ptr, ptr %85, align 8
  %87 = getelementptr inbounds i8, ptr %86, i64 1
  store ptr %87, ptr %85, align 8
  br label %_ZN4llvm11raw_ostreamlsEPKc.exit16

_ZN4llvm11raw_ostreamlsEPKc.exit16:               ; preds = %82, %84
  ret void
}